target datalayout = "e-m:e-p270:32:32-p271:32:32-p272:64:64-i64:64-i128:128-f80:128-n8:16:32:64-S128"
target triple = "x86_64-pc-linux-gnu"

%"class.cv::Size_" = type { i32, i32 }
%"class.perf::TestBaseWithParam" = type { %"class.perf::TestBase", %"class.testing::WithParamInterface" }
%"class.perf::TestBase" = type { %"class.testing::Test", %"class.std::vector", %"class.std::vector", i32, %"class.std::vector.0", i64, i64, i64, i32, i32, i32, i32, i32, [4 x i8], %"struct.perf::performance_metrics", i8, %"class.perf::TestBase::_declareHelper" }
%"class.testing::Test" = type { ptr, %"class.testing::internal::scoped_ptr" }
%"class.testing::internal::scoped_ptr" = type { ptr }
%"class.std::vector" = type { %"struct.std::_Vector_base" }
%"struct.std::_Vector_base" = type { %"struct.std::_Vector_base<std::pair<int, cv::Size_<int>>, std::allocator<std::pair<int, cv::Size_<int>>>>::_Vector_impl" }
%"struct.std::_Vector_base<std::pair<int, cv::Size_<int>>, std::allocator<std::pair<int, cv::Size_<int>>>>::_Vector_impl" = type { %"struct.std::_Vector_base<std::pair<int, cv::Size_<int>>, std::allocator<std::pair<int, cv::Size_<int>>>>::_Vector_impl_data" }
%"struct.std::_Vector_base<std::pair<int, cv::Size_<int>>, std::allocator<std::pair<int, cv::Size_<int>>>>::_Vector_impl_data" = type { ptr, ptr, ptr }
%"class.std::vector.0" = type { %"struct.std::_Vector_base.1" }
%"struct.std::_Vector_base.1" = type { %"struct.std::_Vector_base<long, std::allocator<long>>::_Vector_impl" }
%"struct.std::_Vector_base<long, std::allocator<long>>::_Vector_impl" = type { %"struct.std::_Vector_base<long, std::allocator<long>>::_Vector_impl_data" }
%"struct.std::_Vector_base<long, std::allocator<long>>::_Vector_impl_data" = type { ptr, ptr, ptr }
%"struct.perf::performance_metrics" = type <{ i64, i64, i32, i32, double, double, double, double, double, double, double, i32, [4 x i8] }>
%"class.perf::TestBase::_declareHelper" = type { ptr }
%"class.testing::WithParamInterface" = type { ptr }
%"class.std::tuple.27" = type { %"struct.std::_Tuple_impl.28" }
%"struct.std::_Tuple_impl.28" = type { %"struct.std::_Tuple_impl.29", %"struct.std::_Head_base.31" }
%"struct.std::_Tuple_impl.29" = type { %"struct.std::_Head_base.30" }
%"struct.std::_Head_base.30" = type { i32 }
%"struct.std::_Head_base.31" = type { i32 }
%"struct.opencv_test::(anonymous namespace)::BorderType3x3" = type { i32 }
%"class.perf::MatType" = type { i32 }
%"class.opencv_test::Size_MatType_dx_dy_Border3x3_scharrViaSobelFilter_scharrViaSobelFilter_Test" = type <{ %"class.opencv_test::Size_MatType_dx_dy_Border3x3_scharrViaSobelFilter", i8, [7 x i8] }>
%"class.opencv_test::Size_MatType_dx_dy_Border3x3_scharrViaSobelFilter" = type { %"class.perf::TestBaseWithParam" }
%"class.std::tuple" = type { %"struct.std::_Tuple_impl" }
%"struct.std::_Tuple_impl" = type { %"struct.std::_Tuple_impl.23", %"struct.std::_Head_base.33" }
%"struct.std::_Tuple_impl.23" = type { %"struct.std::_Tuple_impl.24", %"struct.std::_Head_base.32" }
%"struct.std::_Tuple_impl.24" = type { %"struct.std::_Tuple_impl.25", %"struct.std::_Head_base.26" }
%"struct.std::_Tuple_impl.25" = type { %"struct.std::_Head_base" }
%"struct.std::_Head_base" = type { %"struct.opencv_test::(anonymous namespace)::BorderType3x3" }
%"struct.std::_Head_base.26" = type { %"class.std::tuple.27" }
%"struct.std::_Head_base.32" = type { %"class.perf::MatType" }
%"struct.std::_Head_base.33" = type { %"class.cv::Size_" }
%"class.testing::internal::TestFactoryBase" = type { ptr }
%"class.testing::(anonymous namespace)::ParameterizedTestFactory.291" = type { %"class.testing::internal::TestFactoryBase", %"class.std::tuple" }

@_ZN7testing8internal12g_parameter_E = external global ptr, align 8

; Function Attrs: inlinehint mustprogress nounwind uwtable
define internal void @_ZN7testing18WithParamInterfaceISt5tupleIJN2cv5Size_IiEEN4perf7MatTypeES1_IJiiEEN11opencv_test12_GLOBAL__N_113BorderType3x3EEEEC2Ev(ptr noundef nonnull align 8 dereferenceable(8) %0) unnamed_addr #4 align 2 {
  %2 = alloca ptr, align 8
  store ptr %0, ptr %2, align 8, !tbaa !84
  %3 = load ptr, ptr %2, align 8
  store ptr getelementptr inbounds inrange(-16, 16) ({ [4 x ptr] }, ptr @_ZTVN7testing18WithParamInterfaceISt5tupleIJN2cv5Size_IiEEN4perf7MatTypeES1_IJiiEEN11opencv_test12_GLOBAL__N_113BorderType3x3EEEEE, i32 0, i32 0, i32 2), ptr %3, align 8, !tbaa !20
  ret void
}

; Function Attrs: inlinehint mustprogress uwtable
define internal void @_ZN4perf17TestBaseWithParamISt5tupleIJN2cv5Size_IiEENS_7MatTypeES1_IJiiEEN11opencv_test12_GLOBAL__N_113BorderType3x3EEEEC2Ev(ptr noundef nonnull align 8 dereferenceable(256) %0) unnamed_addr #11 align 2 {
  %2 = alloca ptr, align 8
  store ptr %0, ptr %2, align 8, !tbaa !228
  %3 = load ptr, ptr %2, align 8
  call void @_ZN4perf8TestBaseC2Ev(ptr noundef nonnull align 8 dereferenceable(248) %3)
  %4 = getelementptr inbounds i8, ptr %3, i64 248
  call void @_ZN7testing18WithParamInterfaceISt5tupleIJN2cv5Size_IiEEN4perf7MatTypeES1_IJiiEEN11opencv_test12_GLOBAL__N_113BorderType3x3EEEEC2Ev(ptr noundef nonnull align 8 dereferenceable(8) %4) #3
  store ptr getelementptr inbounds inrange(-16, 56) ({ [9 x ptr], [4 x ptr] }, ptr @_ZTVN4perf17TestBaseWithParamISt5tupleIJN2cv5Size_IiEENS_7MatTypeES1_IJiiEEN11opencv_test12_GLOBAL__N_113BorderType3x3EEEEE, i32 0, i32 0, i32 2), ptr %3, align 8, !tbaa !20
  %5 = getelementptr inbounds i8, ptr %3, i64 248
  store ptr getelementptr inbounds inrange(-16, 16) ({ [9 x ptr], [4 x ptr] }, ptr @_ZTVN4perf17TestBaseWithParamISt5tupleIJN2cv5Size_IiEENS_7MatTypeES1_IJiiEEN11opencv_test12_GLOBAL__N_113BorderType3x3EEEEE, i32 0, i32 1, i32 2), ptr %5, align 8, !tbaa !20
  ret void
}

; Function Attrs: mustprogress uwtable
define linkonce_odr hidden void @_ZN11opencv_test49Size_MatType_dx_dy_Border3x3_scharrViaSobelFilterC2Ev(ptr noundef nonnull align 8 dereferenceable(256) %0) unnamed_addr #6 comdat align 2 {
  %2 = alloca ptr, align 8
  store ptr %0, ptr %2, align 8, !tbaa !208
  %3 = load ptr, ptr %2, align 8
  call void @_ZN4perf17TestBaseWithParamISt5tupleIJN2cv5Size_IiEENS_7MatTypeES1_IJiiEEN11opencv_test12_GLOBAL__N_113BorderType3x3EEEEC2Ev(ptr noundef nonnull align 8 dereferenceable(256) %3)
  store ptr getelementptr inbounds inrange(-16, 56) ({ [9 x ptr], [4 x ptr] }, ptr @_ZTVN11opencv_test49Size_MatType_dx_dy_Border3x3_scharrViaSobelFilterE, i32 0, i32 0, i32 2), ptr %3, align 8, !tbaa !20
  %4 = getelementptr inbounds i8, ptr %3, i64 248
  store ptr getelementptr inbounds inrange(-16, 16) ({ [9 x ptr], [4 x ptr] }, ptr @_ZTVN11opencv_test49Size_MatType_dx_dy_Border3x3_scharrViaSobelFilterE, i32 0, i32 1, i32 2), ptr %4, align 8, !tbaa !20
  ret void
}

; Function Attrs: mustprogress nounwind uwtable
define internal noundef nonnull align 8 dereferenceable(8) ptr @_ZN7testing18WithParamInterfaceISt5tupleIJN2cv5Size_IiEEN4perf7MatTypeES1_IJiiEEN11opencv_test12_GLOBAL__N_113BorderType3x3EEEE19GetParameterPtrRef_Ev() #9 align 2 {
  ret ptr @_ZN7testing8internal12g_parameter_E
}

; Function Attrs: mustprogress uwtable
define linkonce_odr hidden void @_ZN11opencv_test75Size_MatType_dx_dy_Border3x3_scharrViaSobelFilter_scharrViaSobelFilter_TestC2Ev(ptr noundef nonnull align 8 dereferenceable(257) %0) unnamed_addr #6 comdat align 2 {
  %2 = alloca ptr, align 8
  store ptr %0, ptr %2, align 8, !tbaa !200
  %3 = load ptr, ptr %2, align 8
  call void @_ZN11opencv_test49Size_MatType_dx_dy_Border3x3_scharrViaSobelFilterC2Ev(ptr noundef nonnull align 8 dereferenceable(256) %3)
  store ptr getelementptr inbounds inrange(-16, 64) ({ [10 x ptr], [4 x ptr] }, ptr @_ZTVN11opencv_test75Size_MatType_dx_dy_Border3x3_scharrViaSobelFilter_scharrViaSobelFilter_TestE, i32 0, i32 0, i32 2), ptr %3, align 8, !tbaa !20
  %4 = getelementptr inbounds i8, ptr %3, i64 248
  store ptr getelementptr inbounds inrange(-16, 16) ({ [10 x ptr], [4 x ptr] }, ptr @_ZTVN11opencv_test75Size_MatType_dx_dy_Border3x3_scharrViaSobelFilter_scharrViaSobelFilter_TestE, i32 0, i32 1, i32 2), ptr %4, align 8, !tbaa !20
  %5 = getelementptr inbounds nuw %"class.opencv_test::Size_MatType_dx_dy_Border3x3_scharrViaSobelFilter_scharrViaSobelFilter_Test", ptr %3, i32 0, i32 1
  store i8 0, ptr %5, align 8, !tbaa !202
  ret void
}

; Function Attrs: mustprogress uwtable
define internal void @_ZN7testing18WithParamInterfaceISt5tupleIJN2cv5Size_IiEEN4perf7MatTypeES1_IJiiEEN11opencv_test12_GLOBAL__N_113BorderType3x3EEEE8SetParamEPKSB_(ptr noundef %0) #6 align 2 {
  %2 = alloca ptr, align 8
  store ptr %0, ptr %2, align 8, !tbaa !82
  %3 = load ptr, ptr %2, align 8, !tbaa !82
  %4 = call noundef nonnull align 8 dereferenceable(8) ptr @_ZN7testing18WithParamInterfaceISt5tupleIJN2cv5Size_IiEEN4perf7MatTypeES1_IJiiEEN11opencv_test12_GLOBAL__N_113BorderType3x3EEEE19GetParameterPtrRef_Ev()
  store ptr %3, ptr %4, align 8, !tbaa !82
  ret void
}

; Function Attrs: mustprogress uwtable
define internal noundef ptr @_ZN7testing12_GLOBAL__N_124ParameterizedTestFactoryIN11opencv_test75Size_MatType_dx_dy_Border3x3_scharrViaSobelFilter_scharrViaSobelFilter_TestEE10CreateTestEv(ptr noundef nonnull align 8 dereferenceable(32) %0) unnamed_addr #6 align 2 personality ptr @__gxx_personality_v0 {
  %2 = alloca ptr, align 8
  %3 = alloca ptr, align 8
  %4 = alloca i32, align 4
  store ptr %0, ptr %2, align 8, !tbaa !1096
  %5 = load ptr, ptr %2, align 8
  %6 = getelementptr inbounds nuw %"class.testing::(anonymous namespace)::ParameterizedTestFactory.291", ptr %5, i32 0, i32 1
  call void @_ZN7testing18WithParamInterfaceISt5tupleIJN2cv5Size_IiEEN4perf7MatTypeES1_IJiiEEN11opencv_test12_GLOBAL__N_113BorderType3x3EEEE8SetParamEPKSB_(ptr noundef %6)
  %7 = call noalias noundef nonnull ptr @_Znwm(i64 noundef 264) #24
  invoke void @_ZN11opencv_test75Size_MatType_dx_dy_Border3x3_scharrViaSobelFilter_scharrViaSobelFilter_TestC2Ev(ptr noundef nonnull align 8 dereferenceable(257) %7)
          to label %8 unwind label %9

8:                                                ; preds = %1
  ret ptr %7

9:                                                ; preds = %1
  %10 = landingpad { ptr, i32 }
          cleanup
  %11 = extractvalue { ptr, i32 } %10, 0
  store ptr %11, ptr %3, align 8
  %12 = extractvalue { ptr, i32 } %10, 1
  store i32 %12, ptr %4, align 4
  call void @_ZdlPv(ptr noundef %7) #25
  br label %13

13:                                               ; preds = %9
  %14 = load ptr, ptr %3, align 8
  %15 = load i32, ptr %4, align 4
  %16 = insertvalue { ptr, i32 } poison, ptr %14, 0
  %17 = insertvalue { ptr, i32 } %16, i32 %15, 1
  resume { ptr, i32 } %17
}